Turbo Assembler	 Version 3.1	    12/20/20 18:51:06	    Page 1
disasm.ASM



      1				     ;Apdoroti MOV, OUT, NOT, RCR, XLAT
      2	0000			     .model small
      3	0000			     .stack 100h
      4	0000			     .data
      5	0000  0D 0A 24			     endl db 0Dh, 0Ah, 24h
      6
      7	0003  0100*(??)			     filename db 256 dup(?)
      8	0103  72 65 7A 2E 74 78	74+	     dst db "rez.txt", 0h
      9	      00
     10
     11	010B  0000			     in_fh dw 0000h
     12	010D  0000			     out_fh dw 0000h
     13
     14	010F  0D 0A 54 41 52 50	41+	     zinute db 13, 10, "TARPAS$"
     15	      53 24
     16	0118  0D 0A 43 69 6B 6C	65+	     zinute1 db	13, 10,	"Cikle$"
     17	      24
     18	0120  0D 0A 4E 75 73 6B	61+	     zinute2 db	13, 10,	"Nuskaite kad mov$"
     19	      69 74 65 20 6B 61	64+
     20	      20 6D 6F 76 24
     21	0133  0D 0A 4E 75 73 6B	61+	     zinute3 db	13, 10,	"Nuskaite kad 88 arba 8A$"
     22	      69 74 65 20 6B 61	64+
     23	      20 38 38 20 61 72	62+
     24	      61 20 38 41 24
     25
     26	014D  6D 6F 76 20		     movkomanda	db "mov	"
     27	0151  4F 55 54 20		     outkomanda	db "OUT	"
     28	0155  4E 4F 54 20		     notkomanda	db "NOT	"
     29	0159  52 43 52 20		     rcrkomanda	db "RCR	"
     30	015D  58 4C 41 54 20		     xlatkomanda db "XLAT "
     31	0162  2C 20			     tarpas db ", "
     32
     33
     34	0164  0100*(??)			     buff db 256 dup(?)
     35
     36	0264  01*(??)			     d db 1 dup(?)
     37	0265  01*(??)			     w db 1 dup(?)
     38	0266  01*(??)			     modd db 1 dup(?)
     39	0267  01*(??)			     reg db 1 dup(?)
     40	0268  01*(??)			     rm	db 1 dup(?)
     41	0269  01*(??)			     poslinkis1	db 1 dup(?)
     42	026A  02*(??)			     poslinkis2	db 2 dup(?)
     43
     44	026C  01*(????)			     operandas1	dw 1 dup(?)
     45	026E  01*(????)			     operandas2	dw 1 dup(?)
     46
     47
     48	0270			     .code
     49	0000			     start:
     50	0000  BA 0000s			     mov dx, @data
     51	0003  8E DA			     mov ds, dx
     52				     ;------------------------------------------------------------FAILO	VARDO			    +
     53				     GAVIMAS----------------------------------
     54	0005  33 C9			     xor cx, cx
     55	0007  26: 8A 0E	0080		     mov cl, es:[80h]	     ; eilutes ilgis
     56	000C  BE 0082			     mov si, 82h	     ; 1 eilutes simbolis
     57	000F  26: 8A 24			     mov ah, es:[si]
Turbo Assembler	 Version 3.1	    12/20/20 18:51:06	    Page 2
disasm.ASM



     58					     ;cmp ah, "/"
     59					     ;jne pradzia
     60					     ;jmp pagalba
     61
     62	0012			     pradzia:
     63	0012  32 E4			     xor ah, ah
     64	0014  BB 0003r			     mov bx, offset filename
     65
     66	0017			     loop2:
     67	0017  26: 8A 04			     mov al, es:[si]
     68	001A  3C 0D			     cmp al, 13	; EOL
     69	001C  74 07			     je	yra
     70	001E  88 07			     mov [bx], al
     71	0020  FE C4			     inc ah
     72	0022  EB 23 90			     jmp eloop2
     73
     74	0025			     yra:
     75	0025  51			     push cx
     76
     77	0026  8A CC			     mov cl, ah
     78	0028  B4 40			     mov ah, 40h
     79	002A  BB 0001			     mov bx, 1
     80	002D  BA 0003r			     mov dx, offset filename
     81	0030  CD 21			     int 21h
     82
     83	0032  B1 02			     mov cl, 02h
     84	0034  B4 40			     mov ah, 40h
     85	0036  BB 0001			     mov bx, 1
     86	0039  BA 0000r			     mov dx, offset endl
     87	003C  CD 21			     int 21h
     88
     89	003E  BB 0002r			     mov bx, offset [filename -	1]
     90	0041  59			     pop cx
     91	0042  32 E4			     xor ah, ah
     92
     93	0044  EB 05 90			     jmp open
     94
     95	0047			     eloop2:
     96	0047  43			     inc bx
     97	0048  46			     inc si
     98	0049  E2 CC			     loop loop2
     99				     ;----------------------------------------------------------------------FAILO		    +
    100				     ATIDARYMAS----------------------------------------
    101	004B			     open:
    102	004B  B8 3D00			     mov ax, 3d00h
    103	004E  BA 0003r			     lea dx, filename
    104	0051  CD 21			     int 21h
    105	0053  A3 010Br			     mov in_fh,	ax
    106
    107					     ;jc klaida
    108
    109	0056  B8 3C00			 mov ax, 3c00h
    110	0059  33 C9			 xor cx,cx
    111	005B  BA 0103r			 lea dx, dst
    112	005E  CD 21			 int 21h
    113	0060  A3 010Dr			 mov out_fh,ax
    114				     ;---------------------------------------------------------------------SKAITYMAS IS		    +
Turbo Assembler	 Version 3.1	    12/20/20 18:51:06	    Page 3
disasm.ASM



    115				     FAILO---------------------------------------
    116	0063			     read:
    117	0063  B8 3F00			     mov ax, 3f00h
    118	0066  8B 1E 010Br		     mov bx, in_fh
    119	006A  B9 0100			     mov cx, 100h
    120	006D  BA 0164r			     mov dx, offset buff
    121	0070  CD 21			     int 21h
    122
    123	0072  8B C8			     mov cx, ax
    124	0074  BB 0164r			     mov bx, offset buff
    125	0077  3D 0000			     cmp ax, 0
    126	007A  74 1F			     je	pabaiga
    127
    128	007C			     loop1:
    129	007C  51			     push cx
    130
    131	007D  33 C0			     xor ax, ax
    132	007F  8A 27			     mov ah, [bx]
    133	0081  80 FC 88			     cmp ah, 88h
    134	0084  74 2D			     je	mov8
    135	0086  80 FC 89			     cmp ah, 89h
    136	0089  74 35			     je	mov9
    137	008B  80 FC 8A			     cmp ah, 8Ah
    138	008E  74 3F			     je	movA
    139	0090  80 FC 8B			     cmp ah, 8Bh
    140	0093  74 49			     je	movB
    141	0095			     nemov:
    142	0095  59			     pop cx
    143	0096  43			     inc bx
    144	0097  E2 E3			     loop loop1
    145
    146	0099  EB C8			     jmp read
    147
    148	009B			     pabaiga:
    149
    150	009B  B8 3E00			     mov ax, 3e00h	     ;close file
    151	009E  8B 1E 010Br		 mov bx, in_fh
    152	00A2  CD 21			 int 21h
    153
    154	00A4  B8 3E00			     mov ax, 3e00h	     ;close file
    155	00A7  8B 1E 010Dr		 mov bx, out_fh
    156	00AB  CD 21			 int 21h
    157
    158	00AD  B4 4C			 mov ah, 4ch		     ;exit
    159	00AF  B0 00			 mov al, 0
    160	00B1  CD 21			 int 21h
    161
    162	00B3			     mov8:
    163	00B3  B1 00			     mov cl, 0
    164	00B5  88 0E 0264r		     mov d, cl
    165	00B9  88 0E 0265r		     mov w, cl
    166
    167	00BD  EB 2C 90			     jmp adresavimobaitas
    168	00C0			     mov9:
    169	00C0  B1 00			     mov cl, 0
    170	00C2  88 0E 0264r		     mov d, cl
    171	00C6  B1 01			     mov cl, 1
Turbo Assembler	 Version 3.1	    12/20/20 18:51:06	    Page 4
disasm.ASM



    172	00C8  88 0E 0265r		     mov w, cl
    173
    174	00CC  EB 1D 90			     jmp adresavimobaitas
    175	00CF			     movA:
    176	00CF  B1 01			     mov cl, 1
    177	00D1  88 0E 0264r		     mov d, cl
    178	00D5  B1 00			     mov cl, 0
    179	00D7  88 0E 0265r		     mov w, cl
    180
    181	00DB  EB 0E 90			     jmp adresavimobaitas
    182	00DE			     movB:
    183	00DE  B1 01			     mov cl, 1
    184	00E0  88 0E 0264r		     mov d, cl
    185	00E4  88 0E 0265r		     mov w, cl
    186
    187	00E8  EB 01 90			     jmp adresavimobaitas
    188
    189	00EB			     adresavimobaitas:
    190	00EB  43			     inc bx
    191
    192	00EC  8A 27			     mov ah, [bx]
    193	00EE  80 E4 C0			     and ah, 11000000b
    194	00F1  88 26 0266r		     mov modd, ah
    195
    196	00F5  8A 27			     mov ah, [bx]
    197	00F7  80 E4 38			     and ah, 00111000b
    198	00FA  88 26 0267r		     mov reg, ah
    199
    200	00FE  8A 27			     mov ah, [bx]
    201	0100  80 E4 07			     and ah, 00000111b
    202	0103  88 26 0268r		     mov rm, ah
    203
    204	0107  80 3E 0265r 00		     cmp w, 0
    205	010C  74 03			     je	w0
    206	010E  EB 51 90			     jmp w1
    207
    208	0111			     w0:  ;------------------------------------- w=0, tikrina reg ---------------------------
    209	0111  80 3E 0267r 00		     cmp reg, 00000000b
    210	0116  75 03			     jne persoka1
    211	0118  E9 0096			     jmp reg000w0
    212	011B			     persoka1:
    213	011B  80 3E 0267r 08		     cmp reg, 00001000b
    214	0120  75 03			     jne persoka2
    215	0122  E9 00A2			     jmp reg001w0
    216	0125			     persoka2:
    217	0125  80 3E 0267r 10		     cmp reg, 00010000b
    218	012A  75 03			     jne persoka3
    219	012C  E9 00AE			     jmp reg010w0
    220	012F			     persoka3:
    221	012F  80 3E 0267r 18		     cmp reg, 00011000b
    222	0134  75 03			     jne persoka4
    223	0136  E9 00BA			     jmp reg011w0
    224	0139			     persoka4:
    225	0139  80 3E 0267r 20		     cmp reg, 00100000b
    226	013E  75 03			     jne persoka5
    227	0140  E9 00C6			     jmp reg100w0
    228	0143			     persoka5:
Turbo Assembler	 Version 3.1	    12/20/20 18:51:06	    Page 5
disasm.ASM



    229	0143  80 3E 0267r 28		     cmp reg, 00101000b
    230	0148  75 03			     jne persoka6
    231	014A  E9 00D2			     jmp reg101w0
    232	014D			     persoka6:
    233	014D  80 3E 0267r 30		     cmp reg, 00110000b
    234	0152  75 03			     jne persoka7
    235	0154  E9 00DE			     jmp reg110w0
    236	0157			     persoka7:
    237	0157  80 3E 0267r 38		     cmp reg, 00111000b
    238	015C  75 03			     jne persoka8
    239	015E  E9 00EA			     jmp reg111w0
    240	0161			     persoka8:
    241
    242	0161			     w1: ;-------------------------------------	w=1, tikrina reg ---------------------------
    243	0161  80 3E 0267r 00		     cmp reg, 00000000b
    244	0166  75 03			     jne persoka11
    245	0168  E9 00F6			     jmp reg000w1
    246	016B			     persoka11:
    247	016B  80 3E 0267r 08		     cmp reg, 00001000b
    248	0170  75 03			     jne persoka12
    249	0172  E9 0105			     jmp reg001w1
    250	0175			     persoka12:
    251	0175  80 3E 0267r 10		     cmp reg, 00010000b
    252	017A  75 03			     jne persoka13
    253	017C  E9 0114			     jmp reg010w1
    254	017F			     persoka13:
    255	017F  80 3E 0267r 18		     cmp reg, 00011000b
    256	0184  75 03			     jne persoka14
    257	0186  E9 0123			     jmp reg011w1
    258	0189			     persoka14:
    259	0189  80 3E 0267r 20		     cmp reg, 00100000b
    260	018E  75 03			     jne persoka15
    261	0190  E9 0132			     jmp reg100w1
    262	0193			     persoka15:
    263	0193  80 3E 0267r 28		     cmp reg, 00101000b
    264	0198  75 03			     jne persoka16
    265	019A  E9 0141			     jmp reg101w1
    266	019D			     persoka16:
    267	019D  80 3E 0267r 30		     cmp reg, 00110000b
    268	01A2  75 03			     jne persoka17
    269	01A4  E9 0150			     jmp reg110w1
    270	01A7			     persoka17:
    271	01A7  80 3E 0267r 38		     cmp reg, 00111000b
    272	01AC  75 03			     jne persoka18
    273	01AE  E9 015F			     jmp reg111w1
    274	01B1			     persoka18:
    275
    276	01B1			     reg000w0: ;--------------------------- w=0, priskiria reiksme pagal reg ---------------
    277	01B1  80 3E 0264r 01		     cmp d, 1
    278	01B6  75 06			     jne ne0000
    279	01B8  C7 06 026Cr 4C41		     mov operandas1, "LA"
    280	01BE			     ne0000:
    281	01BE  C7 06 026Er 4C41		     mov operandas2, "LA"
    282	01C4  E9 0162			     jmp operandai2
    283
    284	01C7			     reg001w0:
    285	01C7  80 3E 0264r 01		     cmp d, 1
Turbo Assembler	 Version 3.1	    12/20/20 18:51:06	    Page 6
disasm.ASM



    286	01CC  75 06			     jne ne0010
    287	01CE  C7 06 026Cr 4C43		     mov operandas1, "LC"
    288	01D4			     ne0010:
    289	01D4  C7 06 026Er 4C43		     mov operandas2, "LC"
    290	01DA  E9 014C			     jmp operandai2
    291
    292	01DD			     reg010w0:
    293	01DD  80 3E 0264r 01		     cmp d, 1
    294	01E2  75 06			     jne ne0100
    295	01E4  C7 06 026Cr 4C44		     mov operandas1, "LD"
    296	01EA			     ne0100:
    297	01EA  C7 06 026Er 4C44		     mov operandas2, "LD"
    298	01F0  E9 0136			     jmp operandai2
    299
    300	01F3			     reg011w0:
    301	01F3  80 3E 0264r 01		     cmp d, 1
    302	01F8  75 06			     jne ne0110
    303	01FA  C7 06 026Cr 4C42		     mov operandas1, "LB"
    304	0200			     ne0110:
    305	0200  C7 06 026Er 4C42		     mov operandas2, "LB"
    306	0206  E9 0120			     jmp operandai2
    307
    308	0209			     reg100w0:
    309	0209  80 3E 0264r 01		     cmp d, 1
    310	020E  75 06			     jne ne1000
    311	0210  C7 06 026Cr 4841		     mov operandas1, "HA"
    312	0216			     ne1000:
    313	0216  C7 06 026Er 4841		     mov operandas2, "HA"
    314	021C  E9 010A			     jmp operandai2
    315
    316	021F			     reg101w0:
    317	021F  80 3E 0264r 01		     cmp d, 1
    318	0224  75 06			     jne ne1010
    319	0226  C7 06 026Cr 4843		     mov operandas1, "HC"
    320	022C			     ne1010:
    321	022C  C7 06 026Er 4843		     mov operandas2, "HC"
    322	0232  E9 00F4			     jmp operandai2
    323
    324	0235			     reg110w0:
    325	0235  80 3E 0264r 01		     cmp d, 1
    326	023A  75 06			     jne ne1100
    327	023C  C7 06 026Cr 4844		     mov operandas1, "HD"
    328	0242			     ne1100:
    329	0242  C7 06 026Er 4844		     mov operandas2, "HD"
    330	0248  E9 00DE			     jmp operandai2
    331
    332	024B			     reg111w0:
    333	024B  80 3E 0264r 01		     cmp d, 1
    334	0250  75 06			     jne ne1110
    335	0252  C7 06 026Cr 4842		     mov operandas1, "HB"
    336	0258			     ne1110:
    337	0258  C7 06 026Er 4842		     mov operandas2, "HB"
    338	025E  E9 00C8			     jmp operandai2
    339
    340	0261			     reg000w1: ;--------------------------- w=1, priskiria reiksme pagal reg ---------------
    341	0261  80 3E 0264r 01		     cmp d, 1
    342	0266  75 09			     jne ne0001
Turbo Assembler	 Version 3.1	    12/20/20 18:51:06	    Page 7
disasm.ASM



    343	0268  C7 06 026Cr 5841		     mov operandas1, "XA"
    344	026E  E9 00B8				     jmp operandai2
    345	0271			     ne0001:
    346	0271  C7 06 026Er 5841		     mov operandas2, "XA"
    347	0277  E9 00AF			     jmp operandai2
    348
    349	027A			     reg001w1:
    350	027A  80 3E 0264r 01		     cmp d, 1
    351	027F  75 09			     jne ne0011
    352	0281  C7 06 026Cr 5843		     mov operandas1, "XC"
    353	0287  E9 009F				     jmp operandai2
    354	028A			     ne0011:
    355	028A  C7 06 026Er 5843		     mov operandas2, "XC"
    356	0290  E9 0096			     jmp operandai2
    357
    358	0293			     reg010w1:
    359	0293  80 3E 0264r 01		     cmp d, 1
    360	0298  75 09			     jne ne0101
    361	029A  C7 06 026Cr 4458		     mov operandas1, "DX"
    362	02A0  E9 0086				     jmp operandai2
    363	02A3			     ne0101:
    364	02A3  C7 06 026Er 4458		     mov operandas2, "DX"
    365	02A9  EB 7E 90			     jmp operandai2
    366
    367	02AC			     reg011w1:
    368	02AC  80 3E 0264r 01		     cmp d, 1
    369	02B1  75 09			     jne ne0111
    370	02B3  C7 06 026Cr 4258		     mov operandas1, "BX"
    371	02B9  EB 6E 90				     jmp operandai2
    372	02BC			     ne0111:
    373	02BC  C7 06 026Er 4258		     mov operandas2, "BX"
    374	02C2  EB 65 90			     jmp operandai2
    375
    376	02C5			     reg100w1:
    377	02C5  80 3E 0264r 01		     cmp d, 1
    378	02CA  75 09			     jne ne1001
    379	02CC  C7 06 026Cr 5053		     mov operandas1, "PS"
    380	02D2  EB 55 90				     jmp operandai2
    381	02D5			     ne1001:
    382	02D5  C7 06 026Er 5053		     mov operandas2, "PS"
    383	02DB  EB 4C 90			     jmp operandai2
    384
    385	02DE			     reg101w1:
    386	02DE  80 3E 0264r 01		     cmp d, 1
    387	02E3  75 09			     jne ne1011
    388	02E5  C7 06 026Cr 4250		     mov operandas1, "BP"
    389	02EB  EB 3C 90				     jmp operandai2
    390	02EE			     ne1011:
    391	02EE  C7 06 026Er 4250		     mov operandas2, "BP"
    392	02F4  EB 33 90			     jmp operandai2
    393
    394	02F7			     reg110w1:
    395	02F7  80 3E 0264r 01		     cmp d, 1
    396	02FC  75 09			     jne ne1101
    397	02FE  C7 06 026Cr 4953		     mov operandas1, "IS"
    398	0304  EB 23 90				     jmp operandai2
    399	0307			     ne1101:
Turbo Assembler	 Version 3.1	    12/20/20 18:51:06	    Page 8
disasm.ASM



    400	0307  C7 06 026Er 4953		     mov operandas2, "IS"
    401	030D  EB 1A 90			     jmp operandai2
    402
    403	0310			     reg111w1:
    404	0310  80 3E 0264r 01		     cmp d, 1
    405	0315  75 09			     jne ne1111
    406	0317  C7 06 026Cr 4449		     mov operandas1, "DI"
    407	031D  EB 0A 90				     jmp operandai2
    408	0320			     ne1111:
    409	0320  C7 06 026Er 4449		     mov operandas2, "DI"
    410	0326  EB 01 90			     jmp operandai2
    411
    412
    413	0329			     operandai2: ;--------------------------------SURADO VIENA,	IESKO				    +
    414				     KITO------------------------------
    415	0329  80 3E 0266r 00		     cmp modd, 00000000b
    416	032E  EB 19 90			     jmp mod00
    417	0331  80 3E 0266r 40		     cmp modd, 01000000b
    418	0336  EB 61 90			     jmp mod01
    419	0339  80 3E 0266r 80		     cmp modd, 10000000b
    420	033E  E9 00A8			     jmp mod10
    421	0341  80 3E 0266r C0		     cmp modd, 11000000b
    422	0346  E9 00F0			     jmp mod11
    423
    424	0349			     mod00:
    425	0349  80 3E 0268r 00		     cmp rm, 00000000b
    426	034E  75 03			     jne persoka21
    427	0350  E9 018D			     jmp rm000mod00
    428	0353			     persoka21:
    429	0353  80 3E 0268r 01		     cmp rm, 00000001b
    430	0358  75 03			     jne persoka22
    431	035A  E9 019C			     jmp rm001mod00
    432	035D			     persoka22:
    433	035D  80 3E 0268r 02		     cmp rm, 00000010b
    434	0362  75 03			     jne persoka23
    435	0364  E9 01AB			     jmp rm010mod00
    436	0367			     persoka23:
    437	0367  80 3E 0268r 03		     cmp rm, 00000011b
    438	036C  75 03			     jne persoka24
    439	036E  E9 01BA			     jmp rm011mod00
    440	0371			     persoka24:
    441	0371  80 3E 0268r 04		     cmp rm, 00000100b
    442	0376  75 03			     jne persoka25
    443	0378  E9 01C9			     jmp rm100mod00
    444	037B			     persoka25:
    445	037B  80 3E 0268r 05		     cmp rm, 00000101b
    446	0380  75 03			     jne persoka26
    447	0382  E9 01D8			     jmp rm101mod00
    448	0385			     persoka26:
    449	0385  80 3E 0268r 06		     cmp rm, 00000110b
    450	038A  75 03			     jne persoka27
    451	038C  E9 01E7			     jmp rm110mod00
    452	038F			     persoka27:
    453	038F  80 3E 0268r 07		     cmp rm, 00000111b
    454	0394  75 03			     jne persoka28
    455	0396  E9 01F6			     jmp rm111mod00
    456	0399			     persoka28:
Turbo Assembler	 Version 3.1	    12/20/20 18:51:06	    Page 9
disasm.ASM



    457				     ;---------------------------------------------------- mod = 01				    +
    458				     -----------------------------------
    459	0399			     mod01:
    460	0399  80 3E 0268r 00		     cmp rm, 00000000b
    461	039E  75 03			     jne persoka31
    462	03A0  E9 0205			     jmp rm000mod01
    463	03A3			     persoka31:
    464	03A3  80 3E 0268r 01		     cmp rm, 00000001b
    465	03A8  75 03			     jne persoka32
    466	03AA  E9 020E			     jmp rm001mod01
    467	03AD			     persoka32:
    468	03AD  80 3E 0268r 02		     cmp rm, 00000010b
    469	03B2  75 03			     jne persoka33
    470	03B4  E9 0217			     jmp rm010mod01
    471	03B7			     persoka33:
    472	03B7  80 3E 0268r 03		     cmp rm, 00000011b
    473	03BC  75 03			     jne persoka34
    474	03BE  E9 0220			     jmp rm011mod01
    475	03C1			     persoka34:
    476	03C1  80 3E 0268r 04		     cmp rm, 00000100b
    477	03C6  75 03			     jne persoka35
    478	03C8  E9 0229			     jmp rm100mod01
    479	03CB			     persoka35:
    480	03CB  80 3E 0268r 05		     cmp rm, 00000101b
    481	03D0  75 03			     jne persoka36
    482	03D2  E9 0232			     jmp rm101mod01
    483	03D5			     persoka36:
    484	03D5  80 3E 0268r 06		     cmp rm, 00000110b
    485	03DA  75 03			     jne persoka37
    486	03DC  E9 023B			     jmp rm110mod01
    487	03DF			     persoka37:
    488	03DF  80 3E 0268r 07		     cmp rm, 00000111b
    489	03E4  75 03			     jne persoka38
    490	03E6  E9 0244			     jmp rm111mod01
    491	03E9			     persoka38:
    492				     ;-------------------------------------------------- mod = 10				    +
    493				     ---------------------------------------
    494	03E9			     mod10:
    495	03E9  80 3E 0268r 00		     cmp rm, 00000000b
    496	03EE  75 03			     jne persoka41
    497	03F0  E9 024D			     jmp rm000mod10
    498	03F3			     persoka41:
    499	03F3  80 3E 0268r 01		     cmp rm, 00000001b
    500	03F8  75 03			     jne persoka42
    501	03FA  E9 0256			     jmp rm001mod10
    502	03FD			     persoka42:
    503	03FD  80 3E 0268r 02		     cmp rm, 00000010b
    504	0402  75 03			     jne persoka43
    505	0404  E9 025F			     jmp rm010mod10
    506	0407			     persoka43:
    507	0407  80 3E 0268r 03		     cmp rm, 00000011b
    508	040C  75 03			     jne persoka44
    509	040E  E9 0268			     jmp rm011mod10
    510	0411			     persoka44:
    511	0411  80 3E 0268r 04		     cmp rm, 00000100b
    512	0416  75 03			     jne persoka45
    513	0418  E9 0271			     jmp rm100mod10
Turbo Assembler	 Version 3.1	    12/20/20 18:51:06	    Page 10
disasm.ASM



    514	041B			     persoka45:
    515	041B  80 3E 0268r 05		     cmp rm, 00000101b
    516	0420  75 03			     jne persoka46
    517	0422  E9 027A			     jmp rm101mod10
    518	0425			     persoka46:
    519	0425  80 3E 0268r 06		     cmp rm, 00000110b
    520	042A  75 03			     jne persoka47
    521	042C  E9 0283			     jmp rm110mod10
    522	042F			     persoka47:
    523	042F  80 3E 0268r 07		     cmp rm, 00000111b
    524	0434  75 03			     jne persoka48
    525	0436  E9 028C			     jmp rm111mod10
    526	0439			     persoka48:
    527				     ;--------------------------------------------- mod	= 11, w	= 0				    +
    528				     -------------------------------------
    529	0439			     mod11:
    530	0439  80 3E 0265r 01		     cmp w, 1
    531	043E  74 50			     je	mod11w1
    532
    533	0440  80 3E 0268r 00		     cmp rm, 00000000b
    534	0445  75 03			     jne persoka51
    535	0447  E9 028E			     jmp rm000mod11
    536	044A			     persoka51:
    537	044A  80 3E 0268r 01		     cmp rm, 00000001b
    538	044F  75 03			     jne persoka52
    539	0451  E9 029D			     jmp rm001mod11
    540	0454			     persoka52:
    541	0454  80 3E 0268r 02		     cmp rm, 00000010b
    542	0459  75 03			     jne persoka53
    543	045B  E9 02AC			     jmp rm010mod11
    544	045E			     persoka53:
    545	045E  80 3E 0268r 03		     cmp rm, 00000011b
    546	0463  75 03			     jne persoka54
    547	0465  E9 02BB			     jmp rm011mod11
    548	0468			     persoka54:
    549	0468  80 3E 0268r 04		     cmp rm, 00000100b
    550	046D  75 03			     jne persoka55
    551	046F  E9 02CA			     jmp rm100mod11
    552	0472			     persoka55:
    553	0472  80 3E 0268r 05		     cmp rm, 00000101b
    554	0477  75 03			     jne persoka56
    555	0479  E9 02D9			     jmp rm101mod11
    556	047C			     persoka56:
    557	047C  80 3E 0268r 06		     cmp rm, 00000110b
    558	0481  75 03			     jne persoka57
    559	0483  E9 02E8			     jmp rm110mod11
    560	0486			     persoka57:
    561	0486  80 3E 0268r 07		     cmp rm, 00000111b
    562	048B  75 03			     jne persoka58
    563	048D  E9 02F7			     jmp rm111mod11
    564	0490			     persoka58:
    565				     ;----------------------------------------------- mod = 11,	w = 1				    +
    566				     --------------------------------
    567	0490			     mod11w1:
    568	0490  80 3E 0268r 00		     cmp rm, 00000000b
    569	0495  75 03			     jne persoka61
    570	0497  E9 0306			     jmp rm000mod11w1
Turbo Assembler	 Version 3.1	    12/20/20 18:51:06	    Page 11
disasm.ASM



    571	049A			     persoka61:
    572	049A  80 3E 0268r 01		     cmp rm, 00000001b
    573	049F  75 03			     jne persoka62
    574	04A1  E9 0315			     jmp rm001mod11w1
    575	04A4			     persoka62:
    576	04A4  80 3E 0268r 02		     cmp rm, 00000010b
    577	04A9  75 03			     jne persoka63
    578	04AB  E9 0324			     jmp rm010mod11w1
    579	04AE			     persoka63:
    580	04AE  80 3E 0268r 03		     cmp rm, 00000011b
    581	04B3  75 03			     jne persoka64
    582	04B5  E9 0333			     jmp rm011mod11w1
    583	04B8			     persoka64:
    584	04B8  80 3E 0268r 04		     cmp rm, 00000100b
    585	04BD  75 03			     jne persoka65
    586	04BF  E9 0342			     jmp rm100mod11w1
    587	04C2			     persoka65:
    588	04C2  80 3E 0268r 05		     cmp rm, 00000101b
    589	04C7  75 03			     jne persoka66
    590	04C9  E9 0351			     jmp rm101mod11w1
    591	04CC			     persoka66:
    592	04CC  80 3E 0268r 06		     cmp rm, 00000110b
    593	04D1  75 03			     jne persoka67
    594	04D3  E9 0360			     jmp rm110mod11w1
    595	04D6			     persoka67:
    596	04D6  80 3E 0268r 07		     cmp rm, 00000111b
    597	04DB  75 03			     jne persoka68
    598	04DD  E9 036F			     jmp rm111mod11w1
    599	04E0			     persoka68:
    600
    601				     ;--------------------------------------------------------------------------------------
    602
    603	04E0			     rm000mod00: ;---------------------------------------------	MOD=00 --------------------
    604	04E0  80 3E 0264r 00		     cmp d, 0
    605	04E5  75 09			     jne ne000
    606	04E7  C7 06 026Cr 3F3F		     mov operandas1, "??"
    607	04ED  E9 0378			     jmp beposlinkio
    608	04F0			     ne000:
    609	04F0  C7 06 026Er 3F3F		     mov operandas2, "??"
    610	04F6  E9 036F			     jmp beposlinkio
    611
    612	04F9			     rm001mod00:
    613	04F9  80 3E 0264r 00		     cmp d, 0
    614	04FE  75 09			     jne ne001
    615	0500  C7 06 026Cr 3F3F		     mov operandas1, "??"
    616	0506  E9 035F			     jmp beposlinkio
    617	0509			     ne001:
    618	0509  C7 06 026Er 3F3F		     mov operandas2, "??"
    619	050F  E9 0356			     jmp beposlinkio
    620
    621	0512			     rm010mod00:
    622	0512  80 3E 0264r 00		     cmp d, 0
    623	0517  75 09			     jne ne002
    624	0519  C7 06 026Cr 3F3F		     mov operandas1, "??"
    625	051F  E9 0346			     jmp beposlinkio
    626	0522			     ne002:
    627	0522  C7 06 026Er 3F3F		     mov operandas2, "??"
Turbo Assembler	 Version 3.1	    12/20/20 18:51:06	    Page 12
disasm.ASM



    628	0528  E9 033D			     jmp beposlinkio
    629
    630	052B			     rm011mod00:
    631	052B  80 3E 0264r 00		     cmp d, 0
    632	0530  75 09			     jne ne003
    633	0532  C7 06 026Cr 3F3F		     mov operandas1, "??"
    634	0538  E9 032D			     jmp beposlinkio
    635	053B			     ne003:
    636	053B  C7 06 026Er 3F3F		     mov operandas2, "??"
    637	0541  E9 0324			     jmp beposlinkio
    638
    639	0544			     rm100mod00:
    640	0544  80 3E 0264r 00		     cmp d, 0
    641	0549  75 09			     jne ne004
    642	054B  C7 06 026Cr 5349		     mov operandas1, "SI"
    643	0551  E9 0314			     jmp beposlinkio
    644	0554			     ne004:
    645	0554  C7 06 026Er 5349		     mov operandas2, "SI"
    646	055A  E9 030B			     jmp beposlinkio
    647
    648	055D			     rm101mod00:
    649	055D  80 3E 0264r 00		     cmp d, 0
    650	0562  75 09			     jne ne005
    651	0564  C7 06 026Cr 4449		     mov operandas1, "DI"
    652	056A  E9 02FB			     jmp beposlinkio
    653	056D			     ne005:
    654	056D  C7 06 026Er 4449		     mov operandas2, "DI"
    655	0573  E9 02F2			     jmp beposlinkio
    656
    657	0576			     rm110mod00:
    658	0576  80 3E 0264r 00		     cmp d, 0
    659	057B  75 09			     jne ne006
    660	057D  C7 06 026Cr 2121		     mov operandas1, "!!"
    661	0583  E9 02E2			     jmp beposlinkio
    662	0586			     ne006:
    663	0586  C7 06 026Er 2121		     mov operandas2, "!!"
    664	058C  E9 02D9			     jmp beposlinkio
    665
    666	058F			     rm111mod00:
    667	058F  80 3E 0264r 00		     cmp d, 0
    668	0594  75 09			     jne ne007
    669	0596  C7 06 026Cr 4258		     mov operandas1, "BX"
    670	059C  E9 02C9			     jmp beposlinkio
    671	059F			     ne007:
    672	059F  C7 06 026Er 4258		     mov operandas2, "BX"
    673	05A5  E9 02C0			     jmp beposlinkio
    674
    675	05A8			     rm000mod01: ;---------------------------------------------	MOD=01 --------------------
    676	05A8  80 3E 0264r 00		     cmp d, 0
    677	05AD  75 06			     jne ne010
    678	05AF  C7 06 026Cr 3F3F		     mov operandas1, "??"
    679
    680				     ;	     inc bx
    681				     ;	     mov ah, [bx]
    682				     ;	     mov poslinkis1, ah
    683
    684				     ;	     jmp suposlinkiu
Turbo Assembler	 Version 3.1	    12/20/20 18:51:06	    Page 13
disasm.ASM



    685	05B5			     ne010:
    686	05B5  C7 06 026Er 3F3F		     mov operandas2, "??"
    687
    688				     ;	     inc bx
    689				     ;	     mov ah, [bx]
    690				     ;	     mov poslinkis1, ah
    691
    692				     ;	     jmp suposlinkiu
    693
    694	05BB			     rm001mod01:
    695	05BB  80 3E 0264r 00		     cmp d, 0
    696	05C0  75 06			     jne ne011
    697	05C2  C7 06 026Cr 3F3F		     mov operandas1, "??"
    698
    699				     ;	     inc bx
    700				     ;	     mov ah, [bx]
    701				     ;	     mov poslinkis1, ah
    702
    703				     ;	     jmp suposlinkiu
    704	05C8			     ne011:
    705	05C8  C7 06 026Er 3F3F		     mov operandas2, "??"
    706
    707				     ;	     inc bx
    708				     ;	     mov ah, [bx]
    709				     ;	     mov poslinkis1, ah
    710
    711				     ;	     jmp suposlinkiu
    712
    713	05CE			     rm010mod01:
    714	05CE  80 3E 0264r 00		     cmp d, 0
    715	05D3  75 06			     jne ne012
    716	05D5  C7 06 026Cr 3F3F		     mov operandas1, "??"
    717
    718				     ;	     inc bx
    719				     ;	     mov ah, [bx]
    720				     ;	     mov poslinkis1, ah
    721
    722				     ;	     jmp suposlinkiu
    723	05DB			     ne012:
    724	05DB  C7 06 026Er 3F3F		     mov operandas2, "??"
    725
    726				     ;	     inc bx
    727				     ;	     mov ah, [bx]
    728				     ;	     mov poslinkis1, ah
    729
    730				     ;	     jmp suposlinkiu
    731
    732	05E1			     rm011mod01:
    733	05E1  80 3E 0264r 00		     cmp d, 0
    734	05E6  75 06			     jne ne013
    735	05E8  C7 06 026Cr 3F3F		     mov operandas1, "??"
    736
    737				     ;	     inc bx
    738				     ;	     mov ah, [bx]
    739				     ;	     mov poslinkis1, ah
    740
    741				     ;	     jmp suposlinkiu
Turbo Assembler	 Version 3.1	    12/20/20 18:51:06	    Page 14
disasm.ASM



    742	05EE			     ne013:
    743	05EE  C7 06 026Er 3F3F		     mov operandas2, "??"
    744
    745				     ;	     inc bx
    746				     ;	     mov ah, [bx]
    747				     ;	     mov poslinkis1, ah
    748
    749				     ;	     jmp suposlinkiu
    750
    751	05F4			     rm100mod01:
    752	05F4  80 3E 0264r 00		     cmp d, 0
    753	05F9  75 06			     jne ne014
    754	05FB  C7 06 026Cr 5349		     mov operandas1, "SI"
    755
    756				     ;	     inc bx
    757				     ;	     mov ah, [bx]
    758				     ;	     mov poslinkis1, ah
    759
    760				     ;	     jmp suposlinkiu
    761	0601			     ne014:
    762	0601  C7 06 026Er 5349		     mov operandas2, "SI"
    763
    764				     ;	     inc bx
    765				     ;	     mov ah, [bx]
    766				     ;	     mov poslinkis1, ah
    767
    768				     ;	     jmp suposlinkiu
    769
    770	0607			     rm101mod01:
    771	0607  80 3E 0264r 00		     cmp d, 0
    772	060C  75 06			     jne ne015
    773	060E  C7 06 026Cr 4449		     mov operandas1, "DI"
    774
    775				     ;	     inc bx
    776				     ;	     mov ah, [bx]
    777				     ;	     mov poslinkis1, ah
    778
    779				     ;	     jmp suposlinkiu
    780	0614			     ne015:
    781	0614  C7 06 026Er 4449		     mov operandas2, "DI"
    782
    783				     ;	     inc bx
    784				     ;	     mov ah, [bx]
    785				     ;	     mov poslinkis1, ah
    786
    787				     ;	     jmp suposlinkiu
    788
    789	061A			     rm110mod01:
    790	061A  80 3E 0264r 00		     cmp d, 0
    791	061F  75 06			     jne ne016
    792	0621  C7 06 026Cr 4250		     mov operandas1, "BP"
    793
    794				     ;	     inc bx
    795				     ;	     mov ah, [bx]
    796				     ;	     mov poslinkis1, ah
    797
    798				     ;	     jmp suposlinkiu
Turbo Assembler	 Version 3.1	    12/20/20 18:51:06	    Page 15
disasm.ASM



    799	0627			     ne016:
    800	0627  C7 06 026Er 4250		     mov operandas2, "BP"
    801
    802				     ;	     inc bx
    803				     ;	     mov ah, [bx]
    804				     ;	     mov poslinkis1, ah
    805
    806				     ;	     jmp suposlinkiu
    807
    808	062D			     rm111mod01:
    809	062D  80 3E 0264r 00		     cmp d, 0
    810	0632  75 06			     jne ne017
    811	0634  C7 06 026Cr 4258		     mov operandas1, "BX"
    812
    813				     ;	     inc bx
    814				     ;	     mov ah, [bx]
    815				     ;	     mov poslinkis1, ah
    816
    817				     ;	     jmp suposlinkiu
    818	063A			     ne017:
    819	063A  C7 06 026Er 4258		     mov operandas2, "BX"
    820
    821				     ;	     inc bx
    822				     ;	     mov ah, [bx]
    823				     ;	     mov poslinkis1, ah
    824
    825				     ;	     jmp suposlinkiu
    826
    827	0640			     rm000mod10: ;---------------------------------------------	MOD=10 --------------------
    828	0640  80 3E 0264r 00		     cmp d, 0
    829	0645  75 06			     jne ne100
    830	0647  C7 06 026Cr 3F3F		     mov operandas1, "??"
    831
    832				     ;	     inc bx
    833				     ;	     mov ah, [bx]
    834				     ;	     mov poslinkis21, ah
    835				     ;	     inc bx
    836				     ;	     mov ah, [bx]
    837				     ;	     mov poslinkis22, ah
    838
    839				     ;	     jmp suposlinkiu2
    840	064D			     ne100:
    841	064D  C7 06 026Er 3F3F		     mov operandas2, "??"
    842
    843				     ;	     inc bx
    844				     ;	     mov ah, [bx]
    845				     ;	     mov poslinkis21, ah
    846				     ;	     inc bx
    847				     ;	     mov ah, [bx]
    848				     ;	     mov poslinkis22, ah
    849
    850				     ;	     jmp suposlinkiu2
    851
    852	0653			     rm001mod10:
    853	0653  80 3E 0264r 00		     cmp d, 0
    854	0658  75 06			     jne ne101
    855	065A  C7 06 026Cr 3F3F		     mov operandas1, "??"
Turbo Assembler	 Version 3.1	    12/20/20 18:51:06	    Page 16
disasm.ASM



    856
    857				     ;	     inc bx
    858				     ;	     mov ah, [bx]
    859				     ;	     mov poslinkis21, ah
    860				     ;	     inc bx
    861				     ;	     mov ah, [bx]
    862				     ;	     mov poslinkis22, ah
    863
    864				     ;	     jmp suposlinkiu2
    865	0660			     ne101:
    866	0660  C7 06 026Er 3F3F		     mov operandas2, "??"
    867
    868				     ;	     inc bx
    869				     ;	     mov ah, [bx]
    870				     ;	     mov poslinkis21, ah
    871				     ;	     inc bx
    872				     ;	     mov ah, [bx]
    873				     ;	     mov poslinkis22, ah
    874
    875				     ;	     jmp suposlinkiu2
    876
    877	0666			     rm010mod10:
    878	0666  80 3E 0264r 00		     cmp d, 0
    879	066B  75 06			     jne ne102
    880	066D  C7 06 026Cr 3F3F		     mov operandas1, "??"
    881
    882				     ;	     inc bx
    883				     ;	     mov ah, [bx]
    884				     ;	     mov poslinkis21, ah
    885				     ;	     inc bx
    886				     ;	     mov ah, [bx]
    887				     ;	     mov poslinkis22, ah
    888
    889				     ;	     jmp suposlinkiu2
    890	0673			     ne102:
    891	0673  C7 06 026Er 3F3F		     mov operandas2, "??"
    892
    893				     ;	     inc bx
    894				     ;	     mov ah, [bx]
    895				     ;	     mov poslinkis21, ah
    896				     ;	     inc bx
    897				     ;	     mov ah, [bx]
    898				     ;	     mov poslinkis22, ah
    899
    900				     ;	     jmp suposlinkiu2
    901
    902	0679			     rm011mod10:
    903	0679  80 3E 0264r 00		     cmp d, 0
    904	067E  75 06			     jne ne103
    905	0680  C7 06 026Cr 3F3F		     mov operandas1, "??"
    906
    907				     ;	     inc bx
    908				     ;	     mov ah, [bx]
    909				     ;	     mov poslinkis21, ah
    910				     ;	     inc bx
    911				     ;	     mov ah, [bx]
    912				     ;	     mov poslinkis22, ah
Turbo Assembler	 Version 3.1	    12/20/20 18:51:06	    Page 17
disasm.ASM



    913
    914				     ;	     jmp suposlinkiu2
    915	0686			     ne103:
    916	0686  C7 06 026Er 3F3F		     mov operandas2, "??"
    917
    918				     ;	     inc bx
    919				     ;	     mov ah, [bx]
    920				     ;	     mov poslinkis21, ah
    921				     ;	     inc bx
    922				     ;	     mov ah, [bx]
    923				     ;	     mov poslinkis22, ah
    924
    925				     ;	     jmp suposlinkiu2
    926
    927	068C			     rm100mod10:
    928	068C  80 3E 0264r 00		     cmp d, 0
    929	0691  75 06			     jne ne104
    930	0693  C7 06 026Cr 5349		     mov operandas1, "SI"
    931
    932				     ;	     inc bx
    933				     ;	     mov ah, [bx]
    934				     ;	     mov poslinkis21, ah
    935				     ;	     inc bx
    936				     ;	     mov ah, [bx]
    937				     ;	     mov poslinkis22, ah
    938
    939				     ;	     jmp suposlinkiu2
    940	0699			     ne104:
    941	0699  C7 06 026Er 5349		     mov operandas2, "SI"
    942
    943				     ;	     inc bx
    944				     ;	     mov ah, [bx]
    945				     ;	     mov poslinkis21, ah
    946				     ;	     inc bx
    947				     ;	     mov ah, [bx]
    948				     ;	     mov poslinkis22, ah
    949
    950				     ;	     jmp suposlinkiu2
    951
    952	069F			     rm101mod10:
    953	069F  80 3E 0264r 00		     cmp d, 0
    954	06A4  75 06			     jne ne105
    955	06A6  C7 06 026Cr 4449		     mov operandas1, "DI"
    956
    957				     ;	     inc bx
    958				     ;	     mov ah, [bx]
    959				     ;	     mov poslinkis21, ah
    960				     ;	     inc bx
    961				     ;	     mov ah, [bx]
    962				     ;	     mov poslinkis22, ah
    963
    964				     ;	     jmp suposlinkiu2
    965	06AC			     ne105:
    966	06AC  C7 06 026Er 4449		     mov operandas2, "DI"
    967
    968				     ;	     inc bx
    969				     ;	     mov ah, [bx]
Turbo Assembler	 Version 3.1	    12/20/20 18:51:06	    Page 18
disasm.ASM



    970				     ;	     mov poslinkis21, ah
    971				     ;	     inc bx
    972				     ;	     mov ah, [bx]
    973				     ;	     mov poslinkis22, ah
    974
    975				     ;	     jmp suposlinkiu2
    976
    977	06B2			     rm110mod10:
    978	06B2  80 3E 0264r 00		     cmp d, 0
    979	06B7  75 06			     jne ne106
    980	06B9  C7 06 026Cr 4250		     mov operandas1, "BP"
    981
    982				     ;	     inc bx
    983				     ;	     mov ah, [bx]
    984				     ;	     mov poslinkis21, ah
    985				     ;	     inc bx
    986				     ;	     mov ah, [bx]
    987				     ;	     mov poslinkis22, ah
    988
    989				     ;	     jmp suposlinkiu2
    990	06BF			     ne106:
    991	06BF  C7 06 026Er 4250		     mov operandas2, "BP"
    992
    993				     ;	     inc bx
    994				     ;	     mov ah, [bx]
    995				     ;	     mov poslinkis21, ah
    996				     ;	     inc bx
    997				     ;	     mov ah, [bx]
    998				     ;	     mov poslinkis22, ah
    999
   1000				     ;	     jmp suposlinkiu2
   1001
   1002	06C5			     rm111mod10:
   1003	06C5  80 3E 0264r 00		     cmp d, 0
   1004	06CA  75 06			     jne ne107
   1005	06CC  C7 06 026Cr 4258		     mov operandas1, "BX"
   1006
   1007				     ;	     inc bx
   1008				     ;	     mov ah, [bx]
   1009				     ;	     mov poslinkis21, ah
   1010				     ;	     inc bx
   1011				     ;	     mov ah, [bx]
   1012				     ;	     mov poslinkis22, ah
   1013
   1014				     ;	     jmp suposlinkiu2
   1015	06D2			     ne107:
   1016	06D2  C7 06 026Er 4258		     mov operandas2, "BX"
   1017
   1018				     ;	     inc bx
   1019				     ;	     mov ah, [bx]
   1020				     ;	     mov poslinkis21, ah
   1021				     ;	     inc bx
   1022				     ;	     mov ah, [bx]
   1023				     ;	     mov poslinkis22, ah
   1024
   1025				     ;	     jmp suposlinkiu2
   1026
Turbo Assembler	 Version 3.1	    12/20/20 18:51:06	    Page 19
disasm.ASM



   1027	06D8			     rm000mod11: ;---------------------------------------------	MOD=11 w=0 --------------------
   1028	06D8  80 3E 0264r 00		     cmp d, 0
   1029	06DD  75 09			     jne ne110
   1030	06DF  C7 06 026Cr 414C		     mov operandas1, "AL"
   1031	06E5  E9 0180			     jmp beposlinkio
   1032	06E8			     ne110:
   1033	06E8  C7 06 026Er 414C		     mov operandas2, "AL"
   1034	06EE  E9 0177			     jmp beposlinkio
   1035
   1036	06F1			     rm001mod11:
   1037	06F1  80 3E 0264r 00		     cmp d, 0
   1038	06F6  75 09			     jne ne111
   1039	06F8  C7 06 026Cr 434C		     mov operandas1, "CL"
   1040	06FE  E9 0167			     jmp beposlinkio
   1041	0701			     ne111:
   1042	0701  C7 06 026Er 434C		     mov operandas2, "CL"
   1043	0707  E9 015E			     jmp beposlinkio
   1044
   1045	070A			     rm010mod11:
   1046	070A  80 3E 0264r 00		     cmp d, 0
   1047	070F  75 09			     jne ne112
   1048	0711  C7 06 026Cr 444C		     mov operandas1, "DL"
   1049	0717  E9 014E			     jmp beposlinkio
   1050	071A			     ne112:
   1051	071A  C7 06 026Er 444C		     mov operandas2, "DL"
   1052	0720  E9 0145			     jmp beposlinkio
   1053
   1054	0723			     rm011mod11:
   1055	0723  80 3E 0264r 00		     cmp d, 0
   1056	0728  75 09			     jne ne113
   1057	072A  C7 06 026Cr 424C		     mov operandas1, "BL"
   1058	0730  E9 0135			     jmp beposlinkio
   1059	0733			     ne113:
   1060	0733  C7 06 026Er 424C		     mov operandas2, "BL"
   1061	0739  E9 012C			     jmp beposlinkio
   1062
   1063	073C			     rm100mod11:
   1064	073C  80 3E 0264r 00		     cmp d, 0
   1065	0741  75 09			     jne ne114
   1066	0743  C7 06 026Cr 4148		     mov operandas1, "AH"
   1067	0749  E9 011C			     jmp beposlinkio
   1068	074C			     ne114:
   1069	074C  C7 06 026Er 4148		     mov operandas2, "AH"
   1070	0752  E9 0113			     jmp beposlinkio
   1071
   1072	0755			     rm101mod11:
   1073	0755  80 3E 0264r 00		     cmp d, 0
   1074	075A  75 09			     jne ne115
   1075	075C  C7 06 026Cr 4348		     mov operandas1, "CH"
   1076	0762  E9 0103			     jmp beposlinkio
   1077	0765			     ne115:
   1078	0765  C7 06 026Er 4348		     mov operandas2, "CH"
   1079	076B  E9 00FA			     jmp beposlinkio
   1080
   1081	076E			     rm110mod11:
   1082	076E  80 3E 0264r 00		     cmp d, 0
   1083	0773  75 09			     jne ne116
Turbo Assembler	 Version 3.1	    12/20/20 18:51:06	    Page 20
disasm.ASM



   1084	0775  C7 06 026Cr 4448		     mov operandas1, "DH"
   1085	077B  E9 00EA			     jmp beposlinkio
   1086	077E			     ne116:
   1087	077E  C7 06 026Er 4448		     mov operandas2, "DH"
   1088	0784  E9 00E1			     jmp beposlinkio
   1089
   1090	0787			     rm111mod11:
   1091	0787  80 3E 0264r 00		     cmp d, 0
   1092	078C  75 09			     jne ne117
   1093	078E  C7 06 026Cr 4248		     mov operandas1, "BH"
   1094	0794  E9 00D1			     jmp beposlinkio
   1095	0797			     ne117:
   1096	0797  C7 06 026Er 4248		     mov operandas2, "BH"
   1097	079D  E9 00C8			     jmp beposlinkio
   1098
   1099	07A0			     rm000mod11w1: ;--------------------------------------------- MOD=11 w=1 --------------------
   1100	07A0  80 3E 0264r 00		     cmp d, 0
   1101	07A5  75 09			     jne ne110w1
   1102	07A7  C7 06 026Cr 4158		     mov operandas1, "AX"
   1103	07AD  E9 00B8			     jmp beposlinkio
   1104	07B0			     ne110w1:
   1105	07B0  C7 06 026Er 4158		     mov operandas2, "AX"
   1106	07B6  E9 00AF			     jmp beposlinkio
   1107
   1108	07B9			     rm001mod11w1:
   1109	07B9  80 3E 0264r 00		     cmp d, 0
   1110	07BE  75 09			     jne ne111w1
   1111	07C0  C7 06 026Cr 4358		     mov operandas1, "CX"
   1112	07C6  E9 009F			     jmp beposlinkio
   1113	07C9			     ne111w1:
   1114	07C9  C7 06 026Er 4358		     mov operandas2, "CX"
   1115	07CF  E9 0096			     jmp beposlinkio
   1116
   1117	07D2			     rm010mod11w1:
   1118	07D2  80 3E 0264r 00		     cmp d, 0
   1119	07D7  75 09			     jne ne112w1
   1120	07D9  C7 06 026Cr 5844		     mov operandas1, "XD"
   1121	07DF  E9 0086			     jmp beposlinkio
   1122	07E2			     ne112w1:
   1123	07E2  C7 06 026Er 5844		     mov operandas2, "XD"
   1124	07E8  EB 7E 90			     jmp beposlinkio
   1125
   1126	07EB			     rm011mod11w1:
   1127	07EB  80 3E 0264r 00		     cmp d, 0
   1128	07F0  75 09			     jne ne113w1
   1129	07F2  C7 06 026Cr 5842		     mov operandas1, "XB"
   1130	07F8  EB 6E 90			     jmp beposlinkio
   1131	07FB			     ne113w1:
   1132	07FB  C7 06 026Er 5842		     mov operandas2, "XB"
   1133	0801  EB 65 90			     jmp beposlinkio
   1134
   1135	0804			     rm100mod11w1:
   1136	0804  80 3E 0264r 00		     cmp d, 0
   1137	0809  75 09			     jne ne114w1
   1138	080B  C7 06 026Cr 5350		     mov operandas1, "SP"
   1139	0811  EB 55 90			     jmp beposlinkio
   1140	0814			     ne114w1:
Turbo Assembler	 Version 3.1	    12/20/20 18:51:06	    Page 21
disasm.ASM



   1141	0814  C7 06 026Er 5350		     mov operandas2, "SP"
   1142	081A  EB 4C 90			     jmp beposlinkio
   1143
   1144	081D			     rm101mod11w1:
   1145	081D  80 3E 0264r 00		     cmp d, 0
   1146	0822  75 09			     jne ne115w1
   1147	0824  C7 06 026Cr 5042		     mov operandas1, "PB"
   1148	082A  EB 3C 90			     jmp beposlinkio
   1149	082D			     ne115w1:
   1150	082D  C7 06 026Er 5042		     mov operandas2, "PB"
   1151	0833  EB 33 90			     jmp beposlinkio
   1152
   1153	0836			     rm110mod11w1:
   1154	0836  80 3E 0264r 00		     cmp d, 0
   1155	083B  75 09			     jne ne116w1
   1156	083D  C7 06 026Cr 4953		     mov operandas1, "IS"
   1157	0843  EB 23 90			     jmp beposlinkio
   1158	0846			     ne116w1:
   1159	0846  C7 06 026Er 4953		     mov operandas2, "IS"
   1160	084C  EB 1A 90			     jmp beposlinkio
   1161
   1162	084F			     rm111mod11w1:
   1163	084F  80 3E 0264r 00		     cmp d, 0
   1164	0854  75 09			     jne ne117w1
   1165	0856  C7 06 026Cr 4944		     mov operandas1, "ID"
   1166	085C  EB 0A 90			     jmp beposlinkio
   1167	085F			     ne117w1:
   1168	085F  C7 06 026Er 4944		     mov operandas2, "ID"
   1169	0865  EB 01 90			     jmp beposlinkio
   1170
   1171
   1172
   1173
   1174
   1175
   1176
   1177
   1178
   1179
   1180
   1181
   1182
   1183
   1184
   1185
   1186
   1187
   1188
   1189
   1190
   1191
   1192
   1193
   1194
   1195
   1196
   1197
Turbo Assembler	 Version 3.1	    12/20/20 18:51:06	    Page 22
disasm.ASM



   1198
   1199
   1200
   1201
   1202
   1203
   1204	0868			     beposlinkio: ;--------------------------- spausdina, poslinkio nera			    +
   1205				     --------------------------------------------
   1206	0868  53			     push bx
   1207
   1208	0869  B9 0004			     mov cx, 4h
   1209	086C  BA 014Dr			     mov dx, offset movkomanda
   1210	086F  B4 40			     mov ah, 40h		    ;RASYMAS I FAILA
   1211	0871  8B 1E 010Dr		     mov bx, out_fh
   1212	0875  CD 21			     int 21h
   1213
   1214	0877  B9 0002			     mov cx, 2h
   1215	087A  BA 026Cr			     mov dx, offset operandas1
   1216	087D  B4 40			     mov ah, 40h		    ;RASYMAS I FAILA
   1217	087F  8B 1E 010Dr		     mov bx, out_fh
   1218	0883  CD 21			     int 21h
   1219
   1220	0885  B9 0002			     mov cx, 2h
   1221	0888  BA 0162r			     mov dx, offset tarpas
   1222	088B  B4 40			     mov ah, 40h		    ;RASYMAS I FAILA
   1223	088D  8B 1E 010Dr		     mov bx, out_fh
   1224	0891  CD 21			     int 21h
   1225
   1226	0893  B9 0002			     mov cx, 2h
   1227	0896  BA 026Er			     mov dx, offset operandas2
   1228	0899  B4 40			     mov ah, 40h		    ;RASYMAS I FAILA
   1229	089B  8B 1E 010Dr		     mov bx, out_fh
   1230	089F  CD 21			     int 21h
   1231
   1232	08A1  B9 0002			     mov cx, 2h
   1233	08A4  BA 0000r			     mov dx, offset endl
   1234	08A7  B4 40			     mov ah, 40h		    ;RASYMAS I FAILA
   1235	08A9  8B 1E 010Dr		     mov bx, out_fh
   1236	08AD  CD 21			     int 21h
   1237
   1238	08AF  5B			     pop bx
   1239
   1240	08B0  E9 F7E2			     jmp nemov
   1241
   1242				     end start
Turbo Assembler	 Version 3.1	    12/20/20 18:51:06	    Page 23
Symbol Table




Symbol Name			  Type	 Value

??DATE				  Text	 "12/20/20"
??FILENAME			  Text	 "disasm  "
??TIME				  Text	 "18:51:05"
??VERSION			  Number 030A
@32BIT				  Text	 0
@CODE				  Text	 _TEXT
@CODESIZE			  Text	 0
@CPU				  Text	 0101H
@CURSEG				  Text	 _TEXT
@DATA				  Text	 DGROUP
@DATASIZE			  Text	 0
@FILENAME			  Text	 DISASM
@INTERFACE			  Text	 00H
@MODEL				  Text	 2
@STACK				  Text	 DGROUP
@WORDSIZE			  Text	 2
ADRESAVIMOBAITAS		  Near	 _TEXT:00EB
BEPOSLINKIO			  Near	 _TEXT:0868
BUFF				  Byte	 DGROUP:0164
D				  Byte	 DGROUP:0264
DST				  Byte	 DGROUP:0103
ELOOP2				  Near	 _TEXT:0047
ENDL				  Byte	 DGROUP:0000
FILENAME			  Byte	 DGROUP:0003
IN_FH				  Word	 DGROUP:010B
LOOP1				  Near	 _TEXT:007C
LOOP2				  Near	 _TEXT:0017
MOD00				  Near	 _TEXT:0349
MOD01				  Near	 _TEXT:0399
MOD10				  Near	 _TEXT:03E9
MOD11				  Near	 _TEXT:0439
MOD11W1				  Near	 _TEXT:0490
MODD				  Byte	 DGROUP:0266
MOV8				  Near	 _TEXT:00B3
MOV9				  Near	 _TEXT:00C0
MOVA				  Near	 _TEXT:00CF
MOVB				  Near	 _TEXT:00DE
MOVKOMANDA			  Byte	 DGROUP:014D
NE000				  Near	 _TEXT:04F0
NE0000				  Near	 _TEXT:01BE
NE0001				  Near	 _TEXT:0271
NE001				  Near	 _TEXT:0509
NE0010				  Near	 _TEXT:01D4
NE0011				  Near	 _TEXT:028A
NE002				  Near	 _TEXT:0522
NE003				  Near	 _TEXT:053B
NE004				  Near	 _TEXT:0554
NE005				  Near	 _TEXT:056D
NE006				  Near	 _TEXT:0586
NE007				  Near	 _TEXT:059F
NE010				  Near	 _TEXT:05B5
NE0100				  Near	 _TEXT:01EA
NE0101				  Near	 _TEXT:02A3
NE011				  Near	 _TEXT:05C8
Turbo Assembler	 Version 3.1	    12/20/20 18:51:06	    Page 24
Symbol Table



NE0110				  Near	 _TEXT:0200
NE0111				  Near	 _TEXT:02BC
NE012				  Near	 _TEXT:05DB
NE013				  Near	 _TEXT:05EE
NE014				  Near	 _TEXT:0601
NE015				  Near	 _TEXT:0614
NE016				  Near	 _TEXT:0627
NE017				  Near	 _TEXT:063A
NE100				  Near	 _TEXT:064D
NE1000				  Near	 _TEXT:0216
NE1001				  Near	 _TEXT:02D5
NE101				  Near	 _TEXT:0660
NE1010				  Near	 _TEXT:022C
NE1011				  Near	 _TEXT:02EE
NE102				  Near	 _TEXT:0673
NE103				  Near	 _TEXT:0686
NE104				  Near	 _TEXT:0699
NE105				  Near	 _TEXT:06AC
NE106				  Near	 _TEXT:06BF
NE107				  Near	 _TEXT:06D2
NE110				  Near	 _TEXT:06E8
NE1100				  Near	 _TEXT:0242
NE1101				  Near	 _TEXT:0307
NE110W1				  Near	 _TEXT:07B0
NE111				  Near	 _TEXT:0701
NE1110				  Near	 _TEXT:0258
NE1111				  Near	 _TEXT:0320
NE111W1				  Near	 _TEXT:07C9
NE112				  Near	 _TEXT:071A
NE112W1				  Near	 _TEXT:07E2
NE113				  Near	 _TEXT:0733
NE113W1				  Near	 _TEXT:07FB
NE114				  Near	 _TEXT:074C
NE114W1				  Near	 _TEXT:0814
NE115				  Near	 _TEXT:0765
NE115W1				  Near	 _TEXT:082D
NE116				  Near	 _TEXT:077E
NE116W1				  Near	 _TEXT:0846
NE117				  Near	 _TEXT:0797
NE117W1				  Near	 _TEXT:085F
NEMOV				  Near	 _TEXT:0095
NOTKOMANDA			  Byte	 DGROUP:0155
OPEN				  Near	 _TEXT:004B
OPERANDAI2			  Near	 _TEXT:0329
OPERANDAS1			  Word	 DGROUP:026C
OPERANDAS2			  Word	 DGROUP:026E
OUTKOMANDA			  Byte	 DGROUP:0151
OUT_FH				  Word	 DGROUP:010D
PABAIGA				  Near	 _TEXT:009B
PERSOKA1			  Near	 _TEXT:011B
PERSOKA11			  Near	 _TEXT:016B
PERSOKA12			  Near	 _TEXT:0175
PERSOKA13			  Near	 _TEXT:017F
PERSOKA14			  Near	 _TEXT:0189
PERSOKA15			  Near	 _TEXT:0193
PERSOKA16			  Near	 _TEXT:019D
PERSOKA17			  Near	 _TEXT:01A7
Turbo Assembler	 Version 3.1	    12/20/20 18:51:06	    Page 25
Symbol Table



PERSOKA18			  Near	 _TEXT:01B1
PERSOKA2			  Near	 _TEXT:0125
PERSOKA21			  Near	 _TEXT:0353
PERSOKA22			  Near	 _TEXT:035D
PERSOKA23			  Near	 _TEXT:0367
PERSOKA24			  Near	 _TEXT:0371
PERSOKA25			  Near	 _TEXT:037B
PERSOKA26			  Near	 _TEXT:0385
PERSOKA27			  Near	 _TEXT:038F
PERSOKA28			  Near	 _TEXT:0399
PERSOKA3			  Near	 _TEXT:012F
PERSOKA31			  Near	 _TEXT:03A3
PERSOKA32			  Near	 _TEXT:03AD
PERSOKA33			  Near	 _TEXT:03B7
PERSOKA34			  Near	 _TEXT:03C1
PERSOKA35			  Near	 _TEXT:03CB
PERSOKA36			  Near	 _TEXT:03D5
PERSOKA37			  Near	 _TEXT:03DF
PERSOKA38			  Near	 _TEXT:03E9
PERSOKA4			  Near	 _TEXT:0139
PERSOKA41			  Near	 _TEXT:03F3
PERSOKA42			  Near	 _TEXT:03FD
PERSOKA43			  Near	 _TEXT:0407
PERSOKA44			  Near	 _TEXT:0411
PERSOKA45			  Near	 _TEXT:041B
PERSOKA46			  Near	 _TEXT:0425
PERSOKA47			  Near	 _TEXT:042F
PERSOKA48			  Near	 _TEXT:0439
PERSOKA5			  Near	 _TEXT:0143
PERSOKA51			  Near	 _TEXT:044A
PERSOKA52			  Near	 _TEXT:0454
PERSOKA53			  Near	 _TEXT:045E
PERSOKA54			  Near	 _TEXT:0468
PERSOKA55			  Near	 _TEXT:0472
PERSOKA56			  Near	 _TEXT:047C
PERSOKA57			  Near	 _TEXT:0486
PERSOKA58			  Near	 _TEXT:0490
PERSOKA6			  Near	 _TEXT:014D
PERSOKA61			  Near	 _TEXT:049A
PERSOKA62			  Near	 _TEXT:04A4
PERSOKA63			  Near	 _TEXT:04AE
PERSOKA64			  Near	 _TEXT:04B8
PERSOKA65			  Near	 _TEXT:04C2
PERSOKA66			  Near	 _TEXT:04CC
PERSOKA67			  Near	 _TEXT:04D6
PERSOKA68			  Near	 _TEXT:04E0
PERSOKA7			  Near	 _TEXT:0157
PERSOKA8			  Near	 _TEXT:0161
POSLINKIS1			  Byte	 DGROUP:0269
POSLINKIS2			  Byte	 DGROUP:026A
PRADZIA				  Near	 _TEXT:0012
RCRKOMANDA			  Byte	 DGROUP:0159
READ				  Near	 _TEXT:0063
REG				  Byte	 DGROUP:0267
REG000W0			  Near	 _TEXT:01B1
REG000W1			  Near	 _TEXT:0261
REG001W0			  Near	 _TEXT:01C7
Turbo Assembler	 Version 3.1	    12/20/20 18:51:06	    Page 26
Symbol Table



REG001W1			  Near	 _TEXT:027A
REG010W0			  Near	 _TEXT:01DD
REG010W1			  Near	 _TEXT:0293
REG011W0			  Near	 _TEXT:01F3
REG011W1			  Near	 _TEXT:02AC
REG100W0			  Near	 _TEXT:0209
REG100W1			  Near	 _TEXT:02C5
REG101W0			  Near	 _TEXT:021F
REG101W1			  Near	 _TEXT:02DE
REG110W0			  Near	 _TEXT:0235
REG110W1			  Near	 _TEXT:02F7
REG111W0			  Near	 _TEXT:024B
REG111W1			  Near	 _TEXT:0310
RM				  Byte	 DGROUP:0268
RM000MOD00			  Near	 _TEXT:04E0
RM000MOD01			  Near	 _TEXT:05A8
RM000MOD10			  Near	 _TEXT:0640
RM000MOD11			  Near	 _TEXT:06D8
RM000MOD11W1			  Near	 _TEXT:07A0
RM001MOD00			  Near	 _TEXT:04F9
RM001MOD01			  Near	 _TEXT:05BB
RM001MOD10			  Near	 _TEXT:0653
RM001MOD11			  Near	 _TEXT:06F1
RM001MOD11W1			  Near	 _TEXT:07B9
RM010MOD00			  Near	 _TEXT:0512
RM010MOD01			  Near	 _TEXT:05CE
RM010MOD10			  Near	 _TEXT:0666
RM010MOD11			  Near	 _TEXT:070A
RM010MOD11W1			  Near	 _TEXT:07D2
RM011MOD00			  Near	 _TEXT:052B
RM011MOD01			  Near	 _TEXT:05E1
RM011MOD10			  Near	 _TEXT:0679
RM011MOD11			  Near	 _TEXT:0723
RM011MOD11W1			  Near	 _TEXT:07EB
RM100MOD00			  Near	 _TEXT:0544
RM100MOD01			  Near	 _TEXT:05F4
RM100MOD10			  Near	 _TEXT:068C
RM100MOD11			  Near	 _TEXT:073C
RM100MOD11W1			  Near	 _TEXT:0804
RM101MOD00			  Near	 _TEXT:055D
RM101MOD01			  Near	 _TEXT:0607
RM101MOD10			  Near	 _TEXT:069F
RM101MOD11			  Near	 _TEXT:0755
RM101MOD11W1			  Near	 _TEXT:081D
RM110MOD00			  Near	 _TEXT:0576
RM110MOD01			  Near	 _TEXT:061A
RM110MOD10			  Near	 _TEXT:06B2
RM110MOD11			  Near	 _TEXT:076E
RM110MOD11W1			  Near	 _TEXT:0836
RM111MOD00			  Near	 _TEXT:058F
RM111MOD01			  Near	 _TEXT:062D
RM111MOD10			  Near	 _TEXT:06C5
RM111MOD11			  Near	 _TEXT:0787
RM111MOD11W1			  Near	 _TEXT:084F
START				  Near	 _TEXT:0000
TARPAS				  Byte	 DGROUP:0162
W				  Byte	 DGROUP:0265
Turbo Assembler	 Version 3.1	    12/20/20 18:51:06	    Page 27
Symbol Table



W0				  Near	 _TEXT:0111
W1				  Near	 _TEXT:0161
XLATKOMANDA			  Byte	 DGROUP:015D
YRA				  Near	 _TEXT:0025
ZINUTE				  Byte	 DGROUP:010F
ZINUTE1				  Byte	 DGROUP:0118
ZINUTE2				  Byte	 DGROUP:0120
ZINUTE3				  Byte	 DGROUP:0133

Groups & Segments		  Bit Size Align  Combine Class

DGROUP				  Group
  STACK				  16  0100 Para	  Stack	  STACK
  _DATA				  16  0270 Word	  Public  DATA
_TEXT				  16  08B3 Word	  Public  CODE
